target datalayout = "e-m:e-p270:32:32-p271:32:32-p272:64:64-i64:64-i128:128-f80:128-n8:16:32:64-S128"
target triple = "x86_64-pc-linux-gnu"

%struct.AVFilterContext = type { ptr, ptr, ptr, ptr, ptr, i32, ptr, ptr, i32, ptr, ptr, i32, i32, ptr, ptr, ptr, ptr, i32, ptr, i32, i32 }
%struct.ThreadData = type { ptr, ptr }
%struct.AVFilterLink = type { ptr, ptr, ptr, ptr, i32, i32, i32, i32, %struct.AVRational, i32, i32, i32, %struct.AVChannelLayout, %struct.AVRational, ptr, i32, %struct.AVFilterFormatsConfig, %struct.AVFilterFormatsConfig }
%struct.AVChannelLayout = type { i32, i32, %union.anon.1, ptr }
%union.anon.1 = type { i64 }
%struct.AVRational = type { i32, i32 }
%struct.AVFilterFormatsConfig = type { ptr, ptr, ptr, ptr, ptr }
%struct.AVFrame = type { [8 x ptr], [8 x i32], ptr, i32, i32, i32, i32, i32, %struct.AVRational, i64, i64, %struct.AVRational, i32, ptr, i32, i32, [8 x ptr], ptr, i32, ptr, i32, i32, i32, i32, i32, i32, i32, i64, ptr, i32, ptr, ptr, i64, i64, i64, i64, ptr, %struct.AVChannelLayout, i64 }

; Function Attrs: nounwind uwtable
define internal i32 @filter_frame(ptr noundef %0, ptr noundef %1) #1 {
  %3 = alloca i32, align 4
  %4 = alloca ptr, align 8
  %5 = alloca ptr, align 8
  %6 = alloca ptr, align 8
  %7 = alloca ptr, align 8
  %8 = alloca ptr, align 8
  %9 = alloca %struct.ThreadData, align 8
  %10 = alloca i32, align 4
  store ptr %0, ptr %4, align 8, !tbaa !35
  store ptr %1, ptr %5, align 8, !tbaa !37
  call void @llvm.lifetime.start.p0(i64 8, ptr %6) #8
  %11 = load ptr, ptr %4, align 8, !tbaa !35
  %12 = getelementptr inbounds nuw %struct.AVFilterLink, ptr %11, i32 0, i32 2
  %13 = load ptr, ptr %12, align 8, !tbaa !39
  store ptr %13, ptr %6, align 8, !tbaa !4
  call void @llvm.lifetime.start.p0(i64 8, ptr %7) #8
  %14 = load ptr, ptr %6, align 8, !tbaa !4
  %15 = getelementptr inbounds nuw %struct.AVFilterContext, ptr %14, i32 0, i32 7
  %16 = load ptr, ptr %15, align 8, !tbaa !47
  %17 = getelementptr inbounds ptr, ptr %16, i64 0
  %18 = load ptr, ptr %17, align 8, !tbaa !35
  store ptr %18, ptr %7, align 8, !tbaa !35
  call void @llvm.lifetime.start.p0(i64 8, ptr %8) #8
  call void @llvm.lifetime.start.p0(i64 16, ptr %9) #8
  %19 = load ptr, ptr %5, align 8, !tbaa !37
  %20 = call i32 @av_frame_is_writable(ptr noundef %19)
  %21 = icmp ne i32 %20, 0
  br i1 %21, label %22, label %24

22:                                               ; preds = %2
  %23 = load ptr, ptr %5, align 8, !tbaa !37
  store ptr %23, ptr %8, align 8, !tbaa !37
  br label %37

24:                                               ; preds = %2
  %25 = load ptr, ptr %7, align 8, !tbaa !35
  %26 = load ptr, ptr %5, align 8, !tbaa !37
  %27 = getelementptr inbounds nuw %struct.AVFrame, ptr %26, i32 0, i32 5
  %28 = load i32, ptr %27, align 8, !tbaa !48
  %29 = call ptr @ff_get_audio_buffer(ptr noundef %25, i32 noundef %28)
  store ptr %29, ptr %8, align 8, !tbaa !37
  %30 = load ptr, ptr %8, align 8, !tbaa !37
  %31 = icmp ne ptr %30, null
  br i1 %31, label %33, label %32

32:                                               ; preds = %24
  call void @av_frame_free(ptr noundef %5)
  store i32 -12, ptr %3, align 4
  store i32 1, ptr %10, align 4
  br label %69

33:                                               ; preds = %24
  %34 = load ptr, ptr %8, align 8, !tbaa !37
  %35 = load ptr, ptr %5, align 8, !tbaa !37
  %36 = call i32 @av_frame_copy_props(ptr noundef %34, ptr noundef %35)
  br label %37

37:                                               ; preds = %33, %22
  %38 = load ptr, ptr %5, align 8, !tbaa !37
  %39 = getelementptr inbounds nuw %struct.ThreadData, ptr %9, i32 0, i32 0
  store ptr %38, ptr %39, align 8, !tbaa !53
  %40 = load ptr, ptr %8, align 8, !tbaa !37
  %41 = getelementptr inbounds nuw %struct.ThreadData, ptr %9, i32 0, i32 1
  store ptr %40, ptr %41, align 8, !tbaa !55
  %42 = load ptr, ptr %6, align 8, !tbaa !4
  %43 = load ptr, ptr %4, align 8, !tbaa !35
  %44 = getelementptr inbounds nuw %struct.AVFilterLink, ptr %43, i32 0, i32 12
  %45 = getelementptr inbounds nuw %struct.AVChannelLayout, ptr %44, i32 0, i32 1
  %46 = load i32, ptr %45, align 4, !tbaa !56
  %47 = load ptr, ptr %6, align 8, !tbaa !4
  %48 = call i32 @ff_filter_get_nb_threads(ptr noundef %47) #9
  %49 = icmp sgt i32 %46, %48
  br i1 %49, label %50, label %53

50:                                               ; preds = %37
  %51 = load ptr, ptr %6, align 8, !tbaa !4
  %52 = call i32 @ff_filter_get_nb_threads(ptr noundef %51) #9
  br label %58

53:                                               ; preds = %37
  %54 = load ptr, ptr %4, align 8, !tbaa !35
  %55 = getelementptr inbounds nuw %struct.AVFilterLink, ptr %54, i32 0, i32 12
  %56 = getelementptr inbounds nuw %struct.AVChannelLayout, ptr %55, i32 0, i32 1
  %57 = load i32, ptr %56, align 4, !tbaa !56
  br label %58

58:                                               ; preds = %53, %50
  %59 = phi i32 [ %52, %50 ], [ %57, %53 ]
  %60 = call i32 @ff_filter_execute(ptr noundef %42, ptr noundef @filter_channels, ptr noundef %9, ptr noundef null, i32 noundef %59)
  %61 = load ptr, ptr %8, align 8, !tbaa !37
  %62 = load ptr, ptr %5, align 8, !tbaa !37
  %63 = icmp ne ptr %61, %62
  br i1 %63, label %64, label %65

64:                                               ; preds = %58
  call void @av_frame_free(ptr noundef %5)
  br label %65

65:                                               ; preds = %64, %58
  %66 = load ptr, ptr %7, align 8, !tbaa !35
  %67 = load ptr, ptr %8, align 8, !tbaa !37
  %68 = call i32 @ff_filter_frame(ptr noundef %66, ptr noundef %67)
  store i32 %68, ptr %3, align 4
  store i32 1, ptr %10, align 4
  br label %69

69:                                               ; preds = %65, %32
  call void @llvm.lifetime.end.p0(i64 16, ptr %9) #8
  call void @llvm.lifetime.end.p0(i64 8, ptr %8) #8
  call void @llvm.lifetime.end.p0(i64 8, ptr %7) #8
  call void @llvm.lifetime.end.p0(i64 8, ptr %6) #8
  %70 = load i32, ptr %3, align 4
  ret i32 %70
}