; Function Attrs: nounwind uwtable
define internal i32 @filter_frame(ptr noundef readonly captures(none) %0, ptr noundef %1) #1 {
  %3 = alloca ptr, align 8
  %4 = alloca %struct.ThreadData, align 8
  store ptr %1, ptr %3, align 8, !tbaa !30
  %5 = getelementptr inbounds nuw i8, ptr %0, i64 16
  %6 = load ptr, ptr %5, align 8, !tbaa !32
  %7 = getelementptr inbounds nuw i8, ptr %6, i64 56
  %8 = load ptr, ptr %7, align 8, !tbaa !41
  %9 = load ptr, ptr %8, align 8, !tbaa !42
  call void @llvm.lifetime.start.p0(i64 16, ptr nonnull %4) #8
  %10 = tail call i32 @av_frame_is_writable(ptr noundef %1) #8
  %.not = icmp eq i32 %10, 0
  br i1 %.not, label %11, label %18

11:                                               ; preds = %2
  %12 = getelementptr inbounds nuw i8, ptr %1, i64 112
  %13 = load i32, ptr %12, align 8, !tbaa !44
  %14 = tail call ptr @ff_get_audio_buffer(ptr noundef %9, i32 noundef %13) #8
  %.not18 = icmp eq ptr %14, null
  br i1 %.not18, label %15, label %16

15:                                               ; preds = %11
  call void @av_frame_free(ptr noundef nonnull %3) #8
  br label %28

16:                                               ; preds = %11
  %17 = tail call i32 @av_frame_copy_props(ptr noundef nonnull %14, ptr noundef nonnull %1) #8
  br label %18

18:                                               ; preds = %2, %16
  %.0 = phi ptr [ %14, %16 ], [ %1, %2 ]
  store ptr %1, ptr %4, align 8, !tbaa !49
  %19 = getelementptr inbounds nuw i8, ptr %4, i64 8
  store ptr %.0, ptr %19, align 8, !tbaa !51
  %20 = getelementptr inbounds nuw i8, ptr %0, i64 76
  %21 = load i32, ptr %20, align 4, !tbaa !52
  %22 = tail call i32 @ff_filter_get_nb_threads(ptr noundef nonnull %6) #9
  %. = tail call i32 @llvm.smin.i32(i32 %21, i32 %22)
  %23 = call i32 @ff_filter_execute(ptr noundef nonnull %6, ptr noundef nonnull @filter_channels, ptr noundef nonnull %4, ptr noundef null, i32 noundef %.) #8
  %24 = load ptr, ptr %3, align 8, !tbaa !30
  %.not19 = icmp eq ptr %.0, %24
  br i1 %.not19, label %26, label %25

25:                                               ; preds = %18
  call void @av_frame_free(ptr noundef nonnull %3) #8
  br label %26

26:                                               ; preds = %25, %18
  %27 = call i32 @ff_filter_frame(ptr noundef %9, ptr noundef %.0) #8
  br label %28

28:                                               ; preds = %26, %15
  %.014 = phi i32 [ %27, %26 ], [ -12, %15 ]
  call void @llvm.lifetime.end.p0(i64 16, ptr nonnull %4) #8
  ret i32 %.014
}